target datalayout = "e-m:e-p270:32:32-p271:32:32-p272:64:64-i64:64-i128:128-f80:128-n8:16:32:64-S128"
target triple = "x86_64-pc-linux-gnu"

%union.CPUTailQ = type { %struct.QTailQLink }
%struct.QTailQLink = type { ptr, ptr }
%struct.CPUState = type { %struct.DeviceState, ptr, i32, ptr, i32, i8, i8, ptr, i8, i8, i8, i8, i8, i8, i8, i8, i32, i32, i32, i32, i64, i64, i64, [1 x %struct.__jmp_buf_tag], %struct.QemuMutex, %struct.anon.0, ptr, i32, i32, ptr, ptr, ptr, ptr, i32, i32, %union.anon, %union.anon.1, %union.anon.2, ptr, ptr, i64, i32, ptr, ptr, ptr, i32, i64, i32, i8, %struct.QemuLockCnt, ptr, i32, i32, i32, i32, i32, ptr, i8, i64, i8, i8, ptr, [0 x i8], %struct.CPUNegativeOffsetState }
%struct.DeviceState = type { %struct.Object, ptr, ptr, i8, i8, i64, i32, i8, ptr, %struct.NamedGPIOListHead, %struct.NamedClockListHead, %struct.BusStateHead, i32, i32, i32, %struct.ResettableState, ptr, %struct.MemReentrancyGuard }
%struct.Object = type { ptr, ptr, ptr, i32, ptr }
%struct.NamedGPIOListHead = type { ptr }
%struct.NamedClockListHead = type { ptr }
%struct.BusStateHead = type { ptr }
%struct.ResettableState = type { i32, i8, i8 }
%struct.MemReentrancyGuard = type { i8 }
%struct.__jmp_buf_tag = type { [8 x i64], i32, %struct.__sigset_t }
%struct.__sigset_t = type { [16 x i64] }
%struct.QemuMutex = type { %union.pthread_mutex_t, i8 }
%union.pthread_mutex_t = type { %struct.__pthread_mutex_s }
%struct.__pthread_mutex_s = type { i32, i32, i32, i32, i32, i16, i16, %struct.__pthread_internal_list }
%struct.__pthread_internal_list = type { ptr, ptr }
%struct.anon.0 = type { ptr, ptr }
%union.anon = type { %struct.QTailQLink }
%union.anon.1 = type { %struct.QTailQLink }
%union.anon.2 = type { %struct.QTailQLink }
%struct.QemuLockCnt = type { i32 }
%struct.CPUNegativeOffsetState = type { %struct.CPUTLB, ptr, i64, i64, %union.IcountDecr, i8 }
%struct.CPUTLB = type { %struct.CPUTLBCommon, [16 x %struct.CPUTLBDesc], [16 x %struct.CPUTLBDescFast] }
%struct.CPUTLBCommon = type { %struct.QemuSpin, i16, i64, i64, i64 }
%struct.QemuSpin = type { i32 }
%struct.CPUTLBDesc = type { i64, i64, i64, i64, i64, i64, [8 x %union.CPUTLBEntry], [8 x %struct.CPUTLBEntryFull], ptr }
%union.CPUTLBEntry = type { %struct.anon.3 }
%struct.anon.3 = type { i64, i64, i64, i64 }
%struct.CPUTLBEntryFull = type { i64, i64, %struct.MemTxAttrs, i8, i8, i8, [3 x i8], %union.anon.4 }
%struct.MemTxAttrs = type { i32, i8, i8, i16 }
%union.anon.4 = type { %struct.anon.5 }
%struct.anon.5 = type { i8, i8, i8 }
%struct.CPUTLBDescFast = type { i64, ptr }
%union.IcountDecr = type { i32 }

@cpus_queue = external global %union.CPUTailQ, align 8

; Function Attrs: nounwind sspstrong uwtable
define dso_local i32 @gdb_breakpoint_remove(ptr noundef %0, i32 noundef %1, i64 noundef %2, i64 noundef %3) #0 {
  %5 = alloca i32, align 4
  %6 = alloca ptr, align 8
  %7 = alloca i32, align 4
  %8 = alloca i64, align 8
  %9 = alloca i64, align 8
  %10 = alloca ptr, align 8
  %11 = alloca i32, align 4
  %12 = alloca ptr, align 8
  %13 = alloca ptr, align 8
  %14 = alloca ptr, align 8
  %15 = alloca ptr, align 8
  %16 = alloca i32, align 4
  store ptr %0, ptr %6, align 8
  store i32 %1, ptr %7, align 4
  store i64 %2, ptr %8, align 8
  store i64 %3, ptr %9, align 8
  call void @llvm.lifetime.start.p0(i64 8, ptr %10) #14
  store ptr null, ptr %10, align 8, !annotation !4
  call void @llvm.lifetime.start.p0(i64 4, ptr %11) #14
  store i32 0, ptr %11, align 4
  %17 = load i32, ptr %7, align 4
  switch i32 %17, label %47 [
    i32 0, label %18
    i32 1, label %18
  ]

18:                                               ; preds = %4, %4
  br label %19

19:                                               ; preds = %18
  br i1 false, label %20, label %21

20:                                               ; preds = %19
  call void @qemu_build_not_reached_always() #17, !srcloc !36
  unreachable

21:                                               ; preds = %19
  call void @llvm.lifetime.start.p0(i64 8, ptr %12) #14
  store ptr null, ptr %12, align 8, !annotation !4
  %22 = load atomic i64, ptr @cpus_queue monotonic, align 8
  store i64 %22, ptr %12, align 8
  call void asm sideeffect "", "~{memory},~{dirflag},~{fpsr},~{flags}"() #14, !srcloc !37
  %23 = load ptr, ptr %12, align 8
  store ptr %23, ptr %13, align 8
  call void @llvm.lifetime.end.p0(i64 8, ptr %12) #14
  %24 = load ptr, ptr %13, align 8
  store ptr %24, ptr %10, align 8
  br label %25

25:                                               ; preds = %39, %21
  %26 = load ptr, ptr %10, align 8
  %27 = icmp ne ptr %26, null
  br i1 %27, label %28, label %45

28:                                               ; preds = %25
  %29 = load ptr, ptr %10, align 8
  %30 = load i64, ptr %8, align 8
  %31 = call i32 @cpu_breakpoint_remove(ptr noundef %29, i64 noundef %30, i32 noundef 16)
  store i32 %31, ptr %11, align 4
  %32 = load i32, ptr %11, align 4
  %33 = icmp ne i32 %32, 0
  br i1 %33, label %34, label %35

34:                                               ; preds = %28
  br label %45

35:                                               ; preds = %28
  br label %36

36:                                               ; preds = %35
  br label %37

37:                                               ; preds = %36
  br i1 false, label %38, label %39

38:                                               ; preds = %37
  call void @qemu_build_not_reached_always() #17, !srcloc !38
  unreachable

39:                                               ; preds = %37
  call void @llvm.lifetime.start.p0(i64 8, ptr %14) #14
  store ptr null, ptr %14, align 8, !annotation !4
  %40 = load ptr, ptr %10, align 8
  %41 = getelementptr inbounds nuw %struct.CPUState, ptr %40, i32 0, i32 35
  %42 = load atomic i64, ptr %41 monotonic, align 16
  store i64 %42, ptr %14, align 8
  call void asm sideeffect "", "~{memory},~{dirflag},~{fpsr},~{flags}"() #14, !srcloc !39
  %43 = load ptr, ptr %14, align 8
  store ptr %43, ptr %15, align 8
  call void @llvm.lifetime.end.p0(i64 8, ptr %14) #14
  %44 = load ptr, ptr %15, align 8
  store ptr %44, ptr %10, align 8
  br label %25, !llvm.loop !40

45:                                               ; preds = %34, %25
  %46 = load i32, ptr %11, align 4
  store i32 %46, ptr %5, align 4
  store i32 1, ptr %16, align 4
  br label %48

47:                                               ; preds = %4
  store i32 -38, ptr %5, align 4
  store i32 1, ptr %16, align 4
  br label %48

48:                                               ; preds = %47, %45
  call void @llvm.lifetime.end.p0(i64 4, ptr %11) #14
  call void @llvm.lifetime.end.p0(i64 8, ptr %10) #14
  %49 = load i32, ptr %5, align 4
  ret i32 %49
}